target datalayout = "e-m:e-p270:32:32-p271:32:32-p272:64:64-i64:64-i128:128-f80:128-n8:16:32:64-S128"
target triple = "x86_64-pc-linux-gnu"

%struct.AVFilterContext = type { ptr, ptr, ptr, ptr, ptr, i32, ptr, ptr, i32, ptr, ptr, i32, i32, ptr, ptr, ptr, ptr, i32, ptr, i32, i32 }
%struct.UnsharpContext = type { ptr, i32, i32, i32, i32, i32, i32, float, float, float, %struct.UnsharpFilterParam, %struct.UnsharpFilterParam, %struct.UnsharpFilterParam, i32, i32, i32, i32, i32, i32, ptr }
%struct.UnsharpFilterParam = type { i32, i32, i32, i32, i32, i32, i32, ptr, ptr }
%struct.AVFilterLink = type { ptr, ptr, ptr, ptr, i32, i32, i32, i32, %struct.AVRational, i32, i32, i32, %struct.AVChannelLayout, %struct.AVRational, ptr, i32, %struct.AVFilterFormatsConfig, %struct.AVFilterFormatsConfig }
%struct.AVChannelLayout = type { i32, i32, %union.anon.1, ptr }
%union.anon.1 = type { i64 }
%struct.AVRational = type { i32, i32 }
%struct.AVFilterFormatsConfig = type { ptr, ptr, ptr, ptr, ptr }
%struct.TheadData = type { ptr, ptr, ptr, i32, i32, i32, i32 }
%struct.AVFrame = type { [8 x ptr], [8 x i32], ptr, i32, i32, i32, i32, i32, %struct.AVRational, i64, i64, %struct.AVRational, i32, ptr, i32, i32, [8 x ptr], ptr, i32, ptr, i32, i32, i32, i32, i32, i32, i32, i64, ptr, i32, ptr, ptr, i64, i64, i64, i64, ptr, %struct.AVChannelLayout, i64 }

; Function Attrs: nounwind uwtable
define internal i32 @apply_unsharp(ptr noundef %0, ptr noundef %1, ptr noundef %2) #1 {
  %4 = alloca ptr, align 8
  %5 = alloca ptr, align 8
  %6 = alloca ptr, align 8
  %7 = alloca ptr, align 8
  %8 = alloca ptr, align 8
  %9 = alloca i32, align 4
  %10 = alloca [4 x i32], align 16
  %11 = alloca [4 x i32], align 16
  %12 = alloca [4 x ptr], align 16
  %13 = alloca %struct.TheadData, align 8
  store ptr %0, ptr %4, align 8, !tbaa !4
  store ptr %1, ptr %5, align 8, !tbaa !42
  store ptr %2, ptr %6, align 8, !tbaa !42
  call void @llvm.lifetime.start.p0(i64 8, ptr %7) #8
  %14 = load ptr, ptr %4, align 8, !tbaa !4
  %15 = getelementptr inbounds nuw %struct.AVFilterContext, ptr %14, i32 0, i32 4
  %16 = load ptr, ptr %15, align 8, !tbaa !72
  %17 = getelementptr inbounds ptr, ptr %16, i64 0
  %18 = load ptr, ptr %17, align 8, !tbaa !40
  store ptr %18, ptr %7, align 8, !tbaa !40
  call void @llvm.lifetime.start.p0(i64 8, ptr %8) #8
  %19 = load ptr, ptr %4, align 8, !tbaa !4
  %20 = getelementptr inbounds nuw %struct.AVFilterContext, ptr %19, i32 0, i32 9
  %21 = load ptr, ptr %20, align 8, !tbaa !9
  store ptr %21, ptr %8, align 8, !tbaa !22
  call void @llvm.lifetime.start.p0(i64 4, ptr %9) #8
  call void @llvm.lifetime.start.p0(i64 16, ptr %10) #8
  call void @llvm.lifetime.start.p0(i64 16, ptr %11) #8
  call void @llvm.lifetime.start.p0(i64 32, ptr %12) #8
  call void @llvm.lifetime.start.p0(i64 40, ptr %13) #8
  %22 = load ptr, ptr %7, align 8, !tbaa !40
  %23 = getelementptr inbounds nuw %struct.AVFilterLink, ptr %22, i32 0, i32 6
  %24 = load i32, ptr %23, align 8, !tbaa !53
  %25 = getelementptr inbounds [4 x i32], ptr %10, i64 0, i64 3
  store i32 %24, ptr %25, align 4, !tbaa !32
  %26 = getelementptr inbounds [4 x i32], ptr %10, i64 0, i64 0
  store i32 %24, ptr %26, align 16, !tbaa !32
  %27 = load ptr, ptr %8, align 8, !tbaa !22
  %28 = getelementptr inbounds nuw %struct.UnsharpContext, ptr %27, i32 0, i32 13
  %29 = load i32, ptr %28, align 8, !tbaa !63
  %30 = call i1 @llvm.is.constant.i32(i32 %29)
  br i1 %30, label %41, label %31

31:                                               ; preds = %3
  %32 = load ptr, ptr %7, align 8, !tbaa !40
  %33 = getelementptr inbounds nuw %struct.AVFilterLink, ptr %32, i32 0, i32 6
  %34 = load i32, ptr %33, align 8, !tbaa !53
  %35 = sub nsw i32 0, %34
  %36 = load ptr, ptr %8, align 8, !tbaa !22
  %37 = getelementptr inbounds nuw %struct.UnsharpContext, ptr %36, i32 0, i32 13
  %38 = load i32, ptr %37, align 8, !tbaa !63
  %39 = ashr i32 %35, %38
  %40 = sub nsw i32 0, %39
  br label %55

41:                                               ; preds = %3
  %42 = load ptr, ptr %7, align 8, !tbaa !40
  %43 = getelementptr inbounds nuw %struct.AVFilterLink, ptr %42, i32 0, i32 6
  %44 = load i32, ptr %43, align 8, !tbaa !53
  %45 = load ptr, ptr %8, align 8, !tbaa !22
  %46 = getelementptr inbounds nuw %struct.UnsharpContext, ptr %45, i32 0, i32 13
  %47 = load i32, ptr %46, align 8, !tbaa !63
  %48 = shl i32 1, %47
  %49 = add nsw i32 %44, %48
  %50 = sub nsw i32 %49, 1
  %51 = load ptr, ptr %8, align 8, !tbaa !22
  %52 = getelementptr inbounds nuw %struct.UnsharpContext, ptr %51, i32 0, i32 13
  %53 = load i32, ptr %52, align 8, !tbaa !63
  %54 = ashr i32 %50, %53
  br label %55

55:                                               ; preds = %41, %31
  %56 = phi i32 [ %40, %31 ], [ %54, %41 ]
  %57 = getelementptr inbounds [4 x i32], ptr %10, i64 0, i64 2
  store i32 %56, ptr %57, align 8, !tbaa !32
  %58 = getelementptr inbounds [4 x i32], ptr %10, i64 0, i64 1
  store i32 %56, ptr %58, align 4, !tbaa !32
  %59 = load ptr, ptr %7, align 8, !tbaa !40
  %60 = getelementptr inbounds nuw %struct.AVFilterLink, ptr %59, i32 0, i32 7
  %61 = load i32, ptr %60, align 4, !tbaa !54
  %62 = getelementptr inbounds [4 x i32], ptr %11, i64 0, i64 3
  store i32 %61, ptr %62, align 4, !tbaa !32
  %63 = getelementptr inbounds [4 x i32], ptr %11, i64 0, i64 0
  store i32 %61, ptr %63, align 16, !tbaa !32
  %64 = load ptr, ptr %8, align 8, !tbaa !22
  %65 = getelementptr inbounds nuw %struct.UnsharpContext, ptr %64, i32 0, i32 14
  %66 = load i32, ptr %65, align 4, !tbaa !65
  %67 = call i1 @llvm.is.constant.i32(i32 %66)
  br i1 %67, label %78, label %68

68:                                               ; preds = %55
  %69 = load ptr, ptr %7, align 8, !tbaa !40
  %70 = getelementptr inbounds nuw %struct.AVFilterLink, ptr %69, i32 0, i32 7
  %71 = load i32, ptr %70, align 4, !tbaa !54
  %72 = sub nsw i32 0, %71
  %73 = load ptr, ptr %8, align 8, !tbaa !22
  %74 = getelementptr inbounds nuw %struct.UnsharpContext, ptr %73, i32 0, i32 14
  %75 = load i32, ptr %74, align 4, !tbaa !65
  %76 = ashr i32 %72, %75
  %77 = sub nsw i32 0, %76
  br label %92

78:                                               ; preds = %55
  %79 = load ptr, ptr %7, align 8, !tbaa !40
  %80 = getelementptr inbounds nuw %struct.AVFilterLink, ptr %79, i32 0, i32 7
  %81 = load i32, ptr %80, align 4, !tbaa !54
  %82 = load ptr, ptr %8, align 8, !tbaa !22
  %83 = getelementptr inbounds nuw %struct.UnsharpContext, ptr %82, i32 0, i32 14
  %84 = load i32, ptr %83, align 4, !tbaa !65
  %85 = shl i32 1, %84
  %86 = add nsw i32 %81, %85
  %87 = sub nsw i32 %86, 1
  %88 = load ptr, ptr %8, align 8, !tbaa !22
  %89 = getelementptr inbounds nuw %struct.UnsharpContext, ptr %88, i32 0, i32 14
  %90 = load i32, ptr %89, align 4, !tbaa !65
  %91 = ashr i32 %87, %90
  br label %92

92:                                               ; preds = %78, %68
  %93 = phi i32 [ %77, %68 ], [ %91, %78 ]
  %94 = getelementptr inbounds [4 x i32], ptr %11, i64 0, i64 2
  store i32 %93, ptr %94, align 8, !tbaa !32
  %95 = getelementptr inbounds [4 x i32], ptr %11, i64 0, i64 1
  store i32 %93, ptr %95, align 4, !tbaa !32
  %96 = load ptr, ptr %8, align 8, !tbaa !22
  %97 = getelementptr inbounds nuw %struct.UnsharpContext, ptr %96, i32 0, i32 10
  %98 = getelementptr inbounds [4 x ptr], ptr %12, i64 0, i64 0
  store ptr %97, ptr %98, align 16, !tbaa !73
  %99 = load ptr, ptr %8, align 8, !tbaa !22
  %100 = getelementptr inbounds nuw %struct.UnsharpContext, ptr %99, i32 0, i32 11
  %101 = getelementptr inbounds [4 x ptr], ptr %12, i64 0, i64 2
  store ptr %100, ptr %101, align 16, !tbaa !73
  %102 = getelementptr inbounds [4 x ptr], ptr %12, i64 0, i64 1
  store ptr %100, ptr %102, align 8, !tbaa !73
  %103 = load ptr, ptr %8, align 8, !tbaa !22
  %104 = getelementptr inbounds nuw %struct.UnsharpContext, ptr %103, i32 0, i32 12
  %105 = getelementptr inbounds [4 x ptr], ptr %12, i64 0, i64 3
  store ptr %104, ptr %105, align 8, !tbaa !73
  store i32 0, ptr %9, align 4, !tbaa !32
  br label %106

106:                                              ; preds = %180, %92
  %107 = load i32, ptr %9, align 4, !tbaa !32
  %108 = load ptr, ptr %8, align 8, !tbaa !22
  %109 = getelementptr inbounds nuw %struct.UnsharpContext, ptr %108, i32 0, i32 15
  %110 = load i32, ptr %109, align 8, !tbaa !61
  %111 = icmp slt i32 %107, %110
  br i1 %111, label %112, label %183

112:                                              ; preds = %106
  %113 = load i32, ptr %9, align 4, !tbaa !32
  %114 = sext i32 %113 to i64
  %115 = getelementptr inbounds [4 x ptr], ptr %12, i64 0, i64 %114
  %116 = load ptr, ptr %115, align 8, !tbaa !73
  %117 = getelementptr inbounds nuw %struct.TheadData, ptr %13, i32 0, i32 0
  store ptr %116, ptr %117, align 8, !tbaa !75
  %118 = load ptr, ptr %6, align 8, !tbaa !42
  %119 = getelementptr inbounds nuw %struct.AVFrame, ptr %118, i32 0, i32 0
  %120 = load i32, ptr %9, align 4, !tbaa !32
  %121 = sext i32 %120 to i64
  %122 = getelementptr inbounds [8 x ptr], ptr %119, i64 0, i64 %121
  %123 = load ptr, ptr %122, align 8, !tbaa !77
  %124 = getelementptr inbounds nuw %struct.TheadData, ptr %13, i32 0, i32 1
  store ptr %123, ptr %124, align 8, !tbaa !78
  %125 = load ptr, ptr %5, align 8, !tbaa !42
  %126 = getelementptr inbounds nuw %struct.AVFrame, ptr %125, i32 0, i32 0
  %127 = load i32, ptr %9, align 4, !tbaa !32
  %128 = sext i32 %127 to i64
  %129 = getelementptr inbounds [8 x ptr], ptr %126, i64 0, i64 %128
  %130 = load ptr, ptr %129, align 8, !tbaa !77
  %131 = getelementptr inbounds nuw %struct.TheadData, ptr %13, i32 0, i32 2
  store ptr %130, ptr %131, align 8, !tbaa !79
  %132 = load i32, ptr %9, align 4, !tbaa !32
  %133 = sext i32 %132 to i64
  %134 = getelementptr inbounds [4 x i32], ptr %10, i64 0, i64 %133
  %135 = load i32, ptr %134, align 4, !tbaa !32
  %136 = getelementptr inbounds nuw %struct.TheadData, ptr %13, i32 0, i32 5
  store i32 %135, ptr %136, align 8, !tbaa !80
  %137 = load i32, ptr %9, align 4, !tbaa !32
  %138 = sext i32 %137 to i64
  %139 = getelementptr inbounds [4 x i32], ptr %11, i64 0, i64 %138
  %140 = load i32, ptr %139, align 4, !tbaa !32
  %141 = getelementptr inbounds nuw %struct.TheadData, ptr %13, i32 0, i32 6
  store i32 %140, ptr %141, align 4, !tbaa !81
  %142 = load ptr, ptr %6, align 8, !tbaa !42
  %143 = getelementptr inbounds nuw %struct.AVFrame, ptr %142, i32 0, i32 1
  %144 = load i32, ptr %9, align 4, !tbaa !32
  %145 = sext i32 %144 to i64
  %146 = getelementptr inbounds [8 x i32], ptr %143, i64 0, i64 %145
  %147 = load i32, ptr %146, align 4, !tbaa !32
  %148 = getelementptr inbounds nuw %struct.TheadData, ptr %13, i32 0, i32 3
  store i32 %147, ptr %148, align 8, !tbaa !82
  %149 = load ptr, ptr %5, align 8, !tbaa !42
  %150 = getelementptr inbounds nuw %struct.AVFrame, ptr %149, i32 0, i32 1
  %151 = load i32, ptr %9, align 4, !tbaa !32
  %152 = sext i32 %151 to i64
  %153 = getelementptr inbounds [8 x i32], ptr %150, i64 0, i64 %152
  %154 = load i32, ptr %153, align 4, !tbaa !32
  %155 = getelementptr inbounds nuw %struct.TheadData, ptr %13, i32 0, i32 4
  store i32 %154, ptr %155, align 4, !tbaa !83
  %156 = load ptr, ptr %4, align 8, !tbaa !4
  %157 = load ptr, ptr %8, align 8, !tbaa !22
  %158 = getelementptr inbounds nuw %struct.UnsharpContext, ptr %157, i32 0, i32 19
  %159 = load ptr, ptr %158, align 8, !tbaa !70
  %160 = load i32, ptr %9, align 4, !tbaa !32
  %161 = sext i32 %160 to i64
  %162 = getelementptr inbounds [4 x i32], ptr %11, i64 0, i64 %161
  %163 = load i32, ptr %162, align 4, !tbaa !32
  %164 = load ptr, ptr %8, align 8, !tbaa !22
  %165 = getelementptr inbounds nuw %struct.UnsharpContext, ptr %164, i32 0, i32 18
  %166 = load i32, ptr %165, align 4, !tbaa !39
  %167 = icmp sgt i32 %163, %166
  br i1 %167, label %168, label %172

168:                                              ; preds = %112
  %169 = load ptr, ptr %8, align 8, !tbaa !22
  %170 = getelementptr inbounds nuw %struct.UnsharpContext, ptr %169, i32 0, i32 18
  %171 = load i32, ptr %170, align 4, !tbaa !39
  br label %177

172:                                              ; preds = %112
  %173 = load i32, ptr %9, align 4, !tbaa !32
  %174 = sext i32 %173 to i64
  %175 = getelementptr inbounds [4 x i32], ptr %11, i64 0, i64 %174
  %176 = load i32, ptr %175, align 4, !tbaa !32
  br label %177

177:                                              ; preds = %172, %168
  %178 = phi i32 [ %171, %168 ], [ %176, %172 ]
  %179 = call i32 @ff_filter_execute(ptr noundef %156, ptr noundef %159, ptr noundef %13, ptr noundef null, i32 noundef %178)
  br label %180

180:                                              ; preds = %177
  %181 = load i32, ptr %9, align 4, !tbaa !32
  %182 = add nsw i32 %181, 1
  store i32 %182, ptr %9, align 4, !tbaa !32
  br label %106, !llvm.loop !84

183:                                              ; preds = %106
  call void @llvm.lifetime.end.p0(i64 40, ptr %13) #8
  call void @llvm.lifetime.end.p0(i64 32, ptr %12) #8
  call void @llvm.lifetime.end.p0(i64 16, ptr %11) #8
  call void @llvm.lifetime.end.p0(i64 16, ptr %10) #8
  call void @llvm.lifetime.end.p0(i64 4, ptr %9) #8
  call void @llvm.lifetime.end.p0(i64 8, ptr %8) #8
  call void @llvm.lifetime.end.p0(i64 8, ptr %7) #8
  ret i32 0
}

; Function Attrs: nounwind uwtable
define internal i32 @filter_frame(ptr noundef %0, ptr noundef %1) #1 {
  %3 = alloca i32, align 4
  %4 = alloca ptr, align 8
  %5 = alloca ptr, align 8
  %6 = alloca ptr, align 8
  %7 = alloca ptr, align 8
  %8 = alloca i32, align 4
  %9 = alloca i32, align 4
  store ptr %0, ptr %4, align 8, !tbaa !40
  store ptr %1, ptr %5, align 8, !tbaa !42
  call void @llvm.lifetime.start.p0(i64 8, ptr %6) #8
  %10 = load ptr, ptr %4, align 8, !tbaa !40
  %11 = getelementptr inbounds nuw %struct.AVFilterLink, ptr %10, i32 0, i32 2
  %12 = load ptr, ptr %11, align 8, !tbaa !44
  %13 = getelementptr inbounds nuw %struct.AVFilterContext, ptr %12, i32 0, i32 7
  %14 = load ptr, ptr %13, align 8, !tbaa !52
  %15 = getelementptr inbounds ptr, ptr %14, i64 0
  %16 = load ptr, ptr %15, align 8, !tbaa !40
  store ptr %16, ptr %6, align 8, !tbaa !40
  call void @llvm.lifetime.start.p0(i64 8, ptr %7) #8
  call void @llvm.lifetime.start.p0(i64 4, ptr %8) #8
  store i32 0, ptr %8, align 4, !tbaa !32
  %17 = load ptr, ptr %6, align 8, !tbaa !40
  %18 = load ptr, ptr %6, align 8, !tbaa !40
  %19 = getelementptr inbounds nuw %struct.AVFilterLink, ptr %18, i32 0, i32 6
  %20 = load i32, ptr %19, align 8, !tbaa !53
  %21 = load ptr, ptr %6, align 8, !tbaa !40
  %22 = getelementptr inbounds nuw %struct.AVFilterLink, ptr %21, i32 0, i32 7
  %23 = load i32, ptr %22, align 4, !tbaa !54
  %24 = call ptr @ff_get_video_buffer(ptr noundef %17, i32 noundef %20, i32 noundef %23)
  store ptr %24, ptr %7, align 8, !tbaa !42
  %25 = load ptr, ptr %7, align 8, !tbaa !42
  %26 = icmp ne ptr %25, null
  br i1 %26, label %28, label %27

27:                                               ; preds = %2
  call void @av_frame_free(ptr noundef %5)
  store i32 -12, ptr %3, align 4
  store i32 1, ptr %9, align 4
  br label %46

28:                                               ; preds = %2
  %29 = load ptr, ptr %7, align 8, !tbaa !42
  %30 = load ptr, ptr %5, align 8, !tbaa !42
  %31 = call i32 @av_frame_copy_props(ptr noundef %29, ptr noundef %30)
  %32 = load ptr, ptr %4, align 8, !tbaa !40
  %33 = getelementptr inbounds nuw %struct.AVFilterLink, ptr %32, i32 0, i32 2
  %34 = load ptr, ptr %33, align 8, !tbaa !44
  %35 = load ptr, ptr %5, align 8, !tbaa !42
  %36 = load ptr, ptr %7, align 8, !tbaa !42
  %37 = call i32 @apply_unsharp(ptr noundef %34, ptr noundef %35, ptr noundef %36)
  store i32 %37, ptr %8, align 4, !tbaa !32
  call void @av_frame_free(ptr noundef %5)
  %38 = load i32, ptr %8, align 4, !tbaa !32
  %39 = icmp slt i32 %38, 0
  br i1 %39, label %40, label %42

40:                                               ; preds = %28
  call void @av_frame_free(ptr noundef %7)
  %41 = load i32, ptr %8, align 4, !tbaa !32
  store i32 %41, ptr %3, align 4
  store i32 1, ptr %9, align 4
  br label %46

42:                                               ; preds = %28
  %43 = load ptr, ptr %6, align 8, !tbaa !40
  %44 = load ptr, ptr %7, align 8, !tbaa !42
  %45 = call i32 @ff_filter_frame(ptr noundef %43, ptr noundef %44)
  store i32 %45, ptr %3, align 4
  store i32 1, ptr %9, align 4
  br label %46

46:                                               ; preds = %42, %40, %27
  call void @llvm.lifetime.end.p0(i64 4, ptr %8) #8
  call void @llvm.lifetime.end.p0(i64 8, ptr %7) #8
  call void @llvm.lifetime.end.p0(i64 8, ptr %6) #8
  %47 = load i32, ptr %3, align 4
  ret i32 %47
}