; Function Attrs: nounwind uwtable
define internal i32 @filter_frame(ptr noundef readonly captures(none) %0, ptr noundef %1) #1 {
  %3 = alloca [4 x i32], align 16
  %4 = alloca [4 x i32], align 16
  %5 = alloca [4 x ptr], align 16
  %6 = alloca %struct.TheadData, align 8
  %7 = alloca ptr, align 8
  store ptr %1, ptr %7, align 8, !tbaa !35
  %8 = getelementptr inbounds nuw i8, ptr %0, i64 16
  %9 = load ptr, ptr %8, align 8, !tbaa !37
  %10 = getelementptr inbounds nuw i8, ptr %9, i64 56
  %11 = load ptr, ptr %10, align 8, !tbaa !46
  %12 = load ptr, ptr %11, align 8, !tbaa !47
  %13 = getelementptr inbounds nuw i8, ptr %12, i64 40
  %14 = load i32, ptr %13, align 8, !tbaa !49
  %15 = getelementptr inbounds nuw i8, ptr %12, i64 44
  %16 = load i32, ptr %15, align 4, !tbaa !50
  %17 = tail call ptr @ff_get_video_buffer(ptr noundef %12, i32 noundef %14, i32 noundef %16) #7
  %.not = icmp eq ptr %17, null
  br i1 %.not, label %18, label %19

18:                                               ; preds = %2
  call void @av_frame_free(ptr noundef nonnull %7) #7
  br label %88

19:                                               ; preds = %2
  %20 = tail call i32 @av_frame_copy_props(ptr noundef nonnull %17, ptr noundef %1) #7
  %21 = load ptr, ptr %8, align 8, !tbaa !37
  %22 = getelementptr inbounds nuw i8, ptr %21, i64 32
  %23 = load ptr, ptr %22, align 8, !tbaa !51
  %24 = load ptr, ptr %23, align 8, !tbaa !47
  %25 = getelementptr inbounds nuw i8, ptr %21, i64 72
  %26 = load ptr, ptr %25, align 8, !tbaa !4
  call void @llvm.lifetime.start.p0(i64 16, ptr nonnull %3) #7
  call void @llvm.lifetime.start.p0(i64 16, ptr nonnull %4) #7
  call void @llvm.lifetime.start.p0(i64 32, ptr nonnull %5) #7
  call void @llvm.lifetime.start.p0(i64 40, ptr nonnull %6) #7
  %27 = getelementptr inbounds nuw i8, ptr %24, i64 40
  %28 = load i32, ptr %27, align 8, !tbaa !49
  %29 = getelementptr inbounds nuw i8, ptr %3, i64 12
  store i32 %28, ptr %29, align 4, !tbaa !52
  store i32 %28, ptr %3, align 16, !tbaa !52
  %30 = sub nsw i32 0, %28
  %31 = getelementptr inbounds nuw i8, ptr %26, i64 192
  %32 = load i32, ptr %31, align 8, !tbaa !53
  %33 = ashr i32 %30, %32
  %34 = sub nsw i32 0, %33
  %35 = getelementptr inbounds nuw i8, ptr %3, i64 8
  store i32 %34, ptr %35, align 8, !tbaa !52
  %36 = getelementptr inbounds nuw i8, ptr %3, i64 4
  store i32 %34, ptr %36, align 4, !tbaa !52
  %37 = getelementptr inbounds nuw i8, ptr %24, i64 44
  %38 = load i32, ptr %37, align 4, !tbaa !50
  %39 = getelementptr inbounds nuw i8, ptr %4, i64 12
  store i32 %38, ptr %39, align 4, !tbaa !52
  store i32 %38, ptr %4, align 16, !tbaa !52
  %40 = sub nsw i32 0, %38
  %41 = getelementptr inbounds nuw i8, ptr %26, i64 196
  %42 = load i32, ptr %41, align 4, !tbaa !54
  %43 = ashr i32 %40, %42
  %44 = sub nsw i32 0, %43
  %45 = getelementptr inbounds nuw i8, ptr %4, i64 8
  store i32 %44, ptr %45, align 8, !tbaa !52
  %46 = getelementptr inbounds nuw i8, ptr %4, i64 4
  store i32 %44, ptr %46, align 4, !tbaa !52
  %47 = getelementptr inbounds nuw i8, ptr %26, i64 48
  store ptr %47, ptr %5, align 16, !tbaa !55
  %48 = getelementptr inbounds nuw i8, ptr %26, i64 96
  %49 = getelementptr inbounds nuw i8, ptr %5, i64 16
  store ptr %48, ptr %49, align 16, !tbaa !55
  %50 = getelementptr inbounds nuw i8, ptr %5, i64 8
  store ptr %48, ptr %50, align 8, !tbaa !55
  %51 = getelementptr inbounds nuw i8, ptr %26, i64 144
  %52 = getelementptr inbounds nuw i8, ptr %5, i64 24
  store ptr %51, ptr %52, align 8, !tbaa !55
  %53 = getelementptr inbounds nuw i8, ptr %26, i64 200
  %54 = load i32, ptr %53, align 8, !tbaa !57
  %55 = icmp sgt i32 %54, 0
  br i1 %55, label %.lr.ph.i, label %apply_unsharp.exit

.lr.ph.i:                                         ; preds = %19
  %56 = getelementptr inbounds nuw i8, ptr %6, i64 8
  %57 = getelementptr inbounds nuw i8, ptr %6, i64 16
  %58 = getelementptr inbounds nuw i8, ptr %6, i64 32
  %59 = getelementptr inbounds nuw i8, ptr %6, i64 36
  %60 = getelementptr inbounds nuw i8, ptr %17, i64 64
  %61 = getelementptr inbounds nuw i8, ptr %6, i64 24
  %62 = getelementptr inbounds nuw i8, ptr %1, i64 64
  %63 = getelementptr inbounds nuw i8, ptr %6, i64 28
  %64 = getelementptr inbounds nuw i8, ptr %26, i64 216
  %65 = getelementptr inbounds nuw i8, ptr %26, i64 212
  br label %66

66:                                               ; preds = %66, %.lr.ph.i
  %indvars.iv.i = phi i64 [ 0, %.lr.ph.i ], [ %indvars.iv.next.i, %66 ]
  %67 = getelementptr inbounds nuw [4 x ptr], ptr %5, i64 0, i64 %indvars.iv.i
  %68 = load ptr, ptr %67, align 8, !tbaa !55
  store ptr %68, ptr %6, align 8, !tbaa !58
  %69 = getelementptr inbounds nuw [8 x ptr], ptr %17, i64 0, i64 %indvars.iv.i
  %70 = load ptr, ptr %69, align 8, !tbaa !60
  store ptr %70, ptr %56, align 8, !tbaa !61
  %71 = getelementptr inbounds nuw [8 x ptr], ptr %1, i64 0, i64 %indvars.iv.i
  %72 = load ptr, ptr %71, align 8, !tbaa !60
  store ptr %72, ptr %57, align 8, !tbaa !62
  %73 = getelementptr inbounds nuw [4 x i32], ptr %3, i64 0, i64 %indvars.iv.i
  %74 = load i32, ptr %73, align 4, !tbaa !52
  store i32 %74, ptr %58, align 8, !tbaa !63
  %75 = getelementptr inbounds nuw [4 x i32], ptr %4, i64 0, i64 %indvars.iv.i
  %76 = load i32, ptr %75, align 4, !tbaa !52
  store i32 %76, ptr %59, align 4, !tbaa !64
  %77 = getelementptr inbounds nuw [8 x i32], ptr %60, i64 0, i64 %indvars.iv.i
  %78 = load i32, ptr %77, align 4, !tbaa !52
  store i32 %78, ptr %61, align 8, !tbaa !65
  %79 = getelementptr inbounds nuw [8 x i32], ptr %62, i64 0, i64 %indvars.iv.i
  %80 = load i32, ptr %79, align 4, !tbaa !52
  store i32 %80, ptr %63, align 4, !tbaa !66
  %81 = load ptr, ptr %64, align 8, !tbaa !67
  %82 = load i32, ptr %65, align 4, !tbaa !34
  %..i = call i32 @llvm.smin.i32(i32 %76, i32 %82)
  %83 = call i32 @ff_filter_execute(ptr noundef nonnull %21, ptr noundef %81, ptr noundef nonnull %6, ptr noundef null, i32 noundef %..i) #7
  %indvars.iv.next.i = add nuw nsw i64 %indvars.iv.i, 1
  %84 = load i32, ptr %53, align 8, !tbaa !57
  %85 = sext i32 %84 to i64
  %86 = icmp slt i64 %indvars.iv.next.i, %85
  br i1 %86, label %66, label %apply_unsharp.exit, !llvm.loop !68

apply_unsharp.exit:                               ; preds = %66, %19
  call void @llvm.lifetime.end.p0(i64 40, ptr nonnull %6) #7
  call void @llvm.lifetime.end.p0(i64 32, ptr nonnull %5) #7
  call void @llvm.lifetime.end.p0(i64 16, ptr nonnull %4) #7
  call void @llvm.lifetime.end.p0(i64 16, ptr nonnull %3) #7
  call void @av_frame_free(ptr noundef nonnull %7) #7
  %87 = call i32 @ff_filter_frame(ptr noundef nonnull %12, ptr noundef nonnull %17) #7
  br label %88

88:                                               ; preds = %apply_unsharp.exit, %18
  %.0 = phi i32 [ %87, %apply_unsharp.exit ], [ -12, %18 ]
  ret i32 %.0
}